; ModuleID = '28/121.c'
source_filename = "28/121.c"
target datalayout = "e-m:e-p270:32:32-p271:32:32-p272:64:64-i64:64-f80:128-n8:16:32:64-S128"
target triple = "x86_64-pc-linux-gnu"

@.str = private unnamed_addr constant [4 x i8] c"%d,\00", align 1
@.str.1 = private unnamed_addr constant [3 x i8] c"%d\00", align 1

; Function Attrs: noinline nounwind uwtable
define dso_local i32 @main() #0 {
  %1 = alloca i32, align 4
  %2 = alloca i8, align 1
  %3 = alloca i8, align 1
  %4 = alloca i32, align 4
  store i32 0, i32* %1, align 4
  store i8 32, i8* %3, align 1
  store i32 0, i32* %4, align 4
  br label %5

5:                                                ; preds = %0, %38
  %6 = call i32 @getchar()
  %7 = trunc i32 %6 to i8
  store i8 %7, i8* %2, align 1
  %8 = load i8, i8* %2, align 1
  %9 = sext i8 %8 to i32
  %10 = icmp ne i32 %9, 10
  br i1 %10, label %11, label %35

11:                                               ; preds = %5
  %12 = load i8, i8* %2, align 1
  %13 = sext i8 %12 to i32
  %14 = icmp ne i32 %13, 32
  br i1 %14, label %15, label %18

15:                                               ; preds = %11
  %16 = load i32, i32* %4, align 4
  %17 = add nsw i32 %16, 1
  store i32 %17, i32* %4, align 4
  br label %34

18:                                               ; preds = %11
  br label %19

19:                                               ; preds = %32, %18
  %20 = load i8, i8* %3, align 1
  %21 = sext i8 %20 to i32
  %22 = icmp eq i32 %21, 32
  br i1 %22, label %23, label %33

23:                                               ; preds = %19
  %24 = call i32 @getchar()
  %25 = trunc i32 %24 to i8
  store i8 %25, i8* %3, align 1
  %26 = load i8, i8* %3, align 1
  %27 = sext i8 %26 to i32
  %28 = icmp ne i32 %27, 32
  br i1 %28, label %29, label %32

29:                                               ; preds = %23
  %30 = load i32, i32* %4, align 4
  %31 = call i32 (i8*, ...) @printf(i8* getelementptr inbounds ([4 x i8], [4 x i8]* @.str, i64 0, i64 0), i32 %30)
  store i8 32, i8* %3, align 1
  store i32 1, i32* %4, align 4
  br label %33

32:                                               ; preds = %23
  br label %19

33:                                               ; preds = %29, %19
  br label %34

34:                                               ; preds = %33, %15
  br label %38

35:                                               ; preds = %5
  %36 = load i32, i32* %4, align 4
  %37 = call i32 (i8*, ...) @printf(i8* getelementptr inbounds ([3 x i8], [3 x i8]* @.str.1, i64 0, i64 0), i32 %36)
  br label %39

38:                                               ; preds = %34
  br label %5

39:                                               ; preds = %35
  ret i32 0
}

declare dso_local i32 @getchar() #1

declare dso_local i32 @printf(i8*, ...) #1


!llvm.module.flags = !{!0}
!llvm.ident = !{!1}

!0 = !{i32 1, !"wchar_size", i32 4}
!1 = !{!"clang version 10.0.0-4ubuntu1 "}
