; ModuleID = 'source-C-CXX/27/121.c'
source_filename = "source-C-CXX/27/121.c"
target datalayout = "e-m:e-p270:32:32-p271:32:32-p272:64:64-i64:64-f80:128-n8:16:32:64-S128"
target triple = "x86_64-pc-linux-gnu"

%struct._IO_FILE = type { i32, i8*, i8*, i8*, i8*, i8*, i8*, i8*, i8*, i8*, i8*, i8*, %struct._IO_marker*, %struct._IO_FILE*, i32, i32, i64, i16, i8, [1 x i8], i8*, i64, %struct._IO_codecvt*, %struct._IO_wide_data*, %struct._IO_FILE*, i8*, i64, i32, [20 x i8] }
%struct._IO_marker = type opaque
%struct._IO_codecvt = type opaque
%struct._IO_wide_data = type opaque

@.str = private unnamed_addr constant [4 x i8] c"%d,\00", align 1
@.str.1 = private unnamed_addr constant [3 x i8] c"%d\00", align 1
@stdin = external local_unnamed_addr global %struct._IO_FILE*, align 8

; Function Attrs: nofree nounwind sspstrong uwtable
define dso_local i32 @main() local_unnamed_addr #0 {
  br label %1

1:                                                ; preds = %22, %0
  %2 = phi i8 [ 32, %0 ], [ %23, %22 ]
  %3 = phi i32 [ 0, %0 ], [ %24, %22 ]
  br label %4

4:                                                ; preds = %1, %9
  %5 = phi i32 [ %10, %9 ], [ %3, %1 ]
  %6 = load %struct._IO_FILE*, %struct._IO_FILE** @stdin, align 8, !tbaa !5
  %7 = tail call i32 @getc(%struct._IO_FILE* %6) #2
  %8 = shl i32 %7, 24
  switch i32 %8, label %9 [
    i32 167772160, label %25
    i32 536870912, label %11
  ]

9:                                                ; preds = %4
  %10 = add nsw i32 %5, 1
  br label %4

11:                                               ; preds = %4, %14
  %12 = phi i8 [ %17, %14 ], [ %2, %4 ]
  %13 = icmp eq i8 %12, 32
  br i1 %13, label %14, label %22

14:                                               ; preds = %11
  %15 = load %struct._IO_FILE*, %struct._IO_FILE** @stdin, align 8, !tbaa !5
  %16 = tail call i32 @getc(%struct._IO_FILE* %15) #2
  %17 = trunc i32 %16 to i8
  %18 = and i32 %16, 255
  %19 = icmp eq i32 %18, 32
  br i1 %19, label %11, label %20, !llvm.loop !9

20:                                               ; preds = %14
  %21 = tail call i32 (i8*, ...) @printf(i8* nonnull dereferenceable(1) getelementptr inbounds ([4 x i8], [4 x i8]* @.str, i64 0, i64 0), i32 %5)
  br label %22

22:                                               ; preds = %11, %20
  %23 = phi i8 [ 32, %20 ], [ %12, %11 ]
  %24 = phi i32 [ 1, %20 ], [ %5, %11 ]
  br label %1

25:                                               ; preds = %4
  %26 = tail call i32 (i8*, ...) @printf(i8* nonnull dereferenceable(1) getelementptr inbounds ([3 x i8], [3 x i8]* @.str.1, i64 0, i64 0), i32 %5)
  ret i32 0
}

; Function Attrs: nofree nounwind
declare noundef i32 @printf(i8* nocapture noundef readonly, ...) local_unnamed_addr #1

; Function Attrs: nofree nounwind
declare noundef i32 @getc(%struct._IO_FILE* nocapture noundef) local_unnamed_addr #1


!llvm.module.flags = !{!0, !1, !2, !3}
!llvm.ident = !{!4}

!0 = !{i32 1, !"wchar_size", i32 4}
!1 = !{i32 7, !"PIC Level", i32 2}
!2 = !{i32 7, !"PIE Level", i32 2}
!3 = !{i32 7, !"uwtable", i32 1}
!4 = !{!"clang version 13.0.0"}
!5 = !{!6, !6, i64 0}
!6 = !{!"any pointer", !7, i64 0}
!7 = !{!"omnipotent char", !8, i64 0}
!8 = !{!"Simple C/C++ TBAA"}
!9 = distinct !{!9, !10}
!10 = !{!"llvm.loop.mustprogress"}
